; Function Attrs: mustprogress nofree norecurse nosync nounwind willreturn memory(write, argmem: readwrite, inaccessiblemem: none) uwtable
define noundef i32 @SUNAdaptController_Reset_Soderlind(ptr noundef readonly captures(none) %0) #3 {
  %2 = load ptr, ptr %0, align 8, !tbaa !19
  %3 = getelementptr inbounds nuw i8, ptr %2, i64 48
  store double 1.000000e+00, ptr %3, align 8, !tbaa !29
  %4 = getelementptr inbounds nuw i8, ptr %2, i64 56
  store double 1.000000e+00, ptr %4, align 8, !tbaa !30
  %5 = getelementptr inbounds nuw i8, ptr %2, i64 64
  store double 1.000000e+00, ptr %5, align 8, !tbaa !31
  %6 = getelementptr inbounds nuw i8, ptr %2, i64 72
  store double 1.000000e+00, ptr %6, align 8, !tbaa !32
  %7 = getelementptr inbounds nuw i8, ptr %2, i64 80
  store i32 0, ptr %7, align 8, !tbaa !33
  ret i32 0
}